; Function Attrs: nounwind uwtable
define void @Ssw_CheckConstraints(ptr noundef %0) local_unnamed_addr #0 {
  %2 = getelementptr inbounds nuw i8, ptr %0, i64 24
  %3 = load ptr, ptr %2, align 8
  %4 = getelementptr i8, ptr %3, i64 140
  %.val = load i32, ptr %4, align 4
  %5 = getelementptr inbounds nuw i8, ptr %0, i64 16
  %6 = load ptr, ptr %5, align 8
  %7 = getelementptr i8, ptr %6, i64 104
  %.val19 = load i32, ptr %7, align 8
  %8 = sub nsw i32 %.val, %.val19
  %9 = icmp sgt i32 %8, 0
  br i1 %9, label %.lr.ph, label %._crit_edge

.lr.ph:                                           ; preds = %1, %30
  %indvars.iv = phi i64 [ %indvars.iv.next, %30 ], [ 0, %1 ]
  %.027 = phi i32 [ %.1, %30 ], [ 0, %1 ]
  %10 = load ptr, ptr %2, align 8
  %11 = getelementptr i8, ptr %10, i64 24
  %.val20 = load ptr, ptr %11, align 8
  %12 = getelementptr i8, ptr %.val20, i64 8
  %.val20.val = load ptr, ptr %12, align 8
  %13 = getelementptr inbounds nuw ptr, ptr %.val20.val, i64 %indvars.iv
  %14 = load ptr, ptr %13, align 8
  %15 = or disjoint i64 %indvars.iv, 1
  %16 = getelementptr inbounds nuw ptr, ptr %.val20.val, i64 %15
  %17 = load ptr, ptr %16, align 8
  %18 = getelementptr i8, ptr %14, i64 8
  %.val22 = load ptr, ptr %18, align 8
  %19 = ptrtoint ptr %.val22 to i64
  %20 = and i64 %19, -2
  %21 = inttoptr i64 %20 to ptr
  %22 = getelementptr i8, ptr %17, i64 8
  %.val23 = load ptr, ptr %22, align 8
  %23 = ptrtoint ptr %.val23 to i64
  %24 = and i64 %23, -2
  %25 = inttoptr i64 %24 to ptr
  %26 = tail call i32 @Ssw_NodesAreEquiv(ptr noundef nonnull %0, ptr noundef %21, ptr noundef %25) #14
  %.not = icmp eq i32 %26, 1
  br i1 %.not, label %30, label %27

27:                                               ; preds = %.lr.ph
  %.val24 = load ptr, ptr %18, align 8
  %.val25 = load ptr, ptr %22, align 8
  %28 = tail call i32 @Ssw_NodesAreConstrained(ptr noundef nonnull %0, ptr noundef %.val24, ptr noundef %.val25) #14
  %29 = add nsw i32 %.027, 1
  br label %30

30:                                               ; preds = %.lr.ph, %27
  %.1 = phi i32 [ %29, %27 ], [ %.027, %.lr.ph ]
  %indvars.iv.next = add nuw nsw i64 %indvars.iv, 2
  %31 = trunc nuw i64 %indvars.iv.next to i32
  %32 = icmp sgt i32 %8, %31
  br i1 %32, label %.lr.ph, label %._crit_edge, !llvm.loop !6

._crit_edge:                                      ; preds = %30, %1
  %.0.lcssa = phi i32 [ 0, %1 ], [ %.1, %30 ]
  %33 = sdiv i32 %8, 2
  tail call void (i32, ptr, ...) @Abc_Print(i32 poison, ptr noundef nonnull @.str, i32 noundef %33, i32 noundef %.0.lcssa)
  ret void
}